; Function Attrs: mustprogress uwtable
define void @_ZN6duckdb16ListColumnWriter5WriteERNS_17ColumnWriterStateERNS_6VectorEm(ptr noundef nonnull align 8 dereferenceable(80) %0, ptr noundef nonnull align 8 dereferenceable(112) %1, ptr noundef nonnull align 8 dereferenceable(104) %2, i64 noundef %3) unnamed_addr #0 align 2 personality ptr @__gxx_personality_v0 {
  %5 = alloca %"class.duckdb::Vector", align 8
  %6 = tail call noundef nonnull align 8 dereferenceable(104) ptr @_ZN6duckdb10ListVector8GetEntryERNS_6VectorE(ptr noundef nonnull align 8 dereferenceable(104) %2)
  call void @llvm.lifetime.start.p0(i64 104, ptr nonnull %5) #25
  call void @_ZN6duckdb6VectorC1ERS0_(ptr noundef nonnull align 8 dereferenceable(104) %5, ptr noundef nonnull align 8 dereferenceable(104) %6)
  %7 = invoke noundef i64 @_ZN6duckdb23GetConsecutiveChildListERNS_6VectorES1_mm(ptr noundef nonnull align 8 dereferenceable(104) %2, ptr noundef nonnull align 8 dereferenceable(104) %5, i64 noundef 0, i64 noundef %3)
          to label %8 unwind label %19

8:                                                ; preds = %4
  %9 = getelementptr inbounds nuw i8, ptr %0, i64 72
  %10 = invoke noundef ptr @_ZNK6duckdb10unique_ptrINS_12ColumnWriterESt14default_deleteIS1_ELb1EEptEv(ptr noundef nonnull align 8 dereferenceable(8) %9)
          to label %11 unwind label %19

11:                                               ; preds = %8
  %12 = getelementptr inbounds nuw i8, ptr %1, i64 128
  %13 = invoke noundef nonnull align 8 dereferenceable(112) ptr @_ZNK6duckdb10unique_ptrINS_17ColumnWriterStateESt14default_deleteIS1_ELb1EEdeEv(ptr noundef nonnull align 8 dereferenceable(8) %12)
          to label %14 unwind label %19

14:                                               ; preds = %11
  %15 = load ptr, ptr %10, align 8, !tbaa !3
  %16 = getelementptr inbounds nuw i8, ptr %15, i64 64
  %17 = load ptr, ptr %16, align 8
  invoke void %17(ptr noundef nonnull align 8 dereferenceable(65) %10, ptr noundef nonnull align 8 dereferenceable(112) %13, ptr noundef nonnull align 8 dereferenceable(104) %5, i64 noundef %7)
          to label %18 unwind label %19

18:                                               ; preds = %14
  call void @_ZN6duckdb6VectorD2Ev(ptr noundef nonnull align 8 dereferenceable(104) %5) #25
  call void @llvm.lifetime.end.p0(i64 104, ptr nonnull %5) #25
  ret void

19:                                               ; preds = %14, %11, %8, %4
  %20 = landingpad { ptr, i32 }
          cleanup
  call void @_ZN6duckdb6VectorD2Ev(ptr noundef nonnull align 8 dereferenceable(104) %5) #25
  call void @llvm.lifetime.end.p0(i64 104, ptr nonnull %5) #25
  resume { ptr, i32 } %20
}